; ModuleID = '61/1552.c'
source_filename = "61/1552.c"
target datalayout = "e-m:e-p270:32:32-p271:32:32-p272:64:64-i64:64-f80:128-n8:16:32:64-S128"
target triple = "x86_64-pc-linux-gnu"

@.str = private unnamed_addr constant [3 x i8] c"%d\00", align 1
@.str.1 = private unnamed_addr constant [4 x i8] c"%d\0A\00", align 1

; Function Attrs: noinline nounwind uwtable
define dso_local i32 @main() #0 {
  %1 = alloca i32, align 4
  %2 = alloca i32, align 4
  %3 = alloca i32, align 4
  %4 = alloca [30 x i32], align 16
  store i32 0, i32* %1, align 4
  %5 = call i32 (i8*, ...) @__isoc99_scanf(i8* getelementptr inbounds ([3 x i8], [3 x i8]* @.str, i64 0, i64 0), i32* %3)
  store i32 0, i32* %2, align 4
  br label %6

6:                                                ; preds = %15, %0
  %7 = load i32, i32* %2, align 4
  %8 = load i32, i32* %3, align 4
  %9 = icmp slt i32 %7, %8
  br i1 %9, label %10, label %18

10:                                               ; preds = %6
  %11 = load i32, i32* %2, align 4
  %12 = sext i32 %11 to i64
  %13 = getelementptr inbounds [30 x i32], [30 x i32]* %4, i64 0, i64 %12
  %14 = call i32 (i8*, ...) @__isoc99_scanf(i8* getelementptr inbounds ([3 x i8], [3 x i8]* @.str, i64 0, i64 0), i32* %13)
  br label %15

15:                                               ; preds = %10
  %16 = load i32, i32* %2, align 4
  %17 = add nsw i32 %16, 1
  store i32 %17, i32* %2, align 4
  br label %6

18:                                               ; preds = %6
  store i32 0, i32* %2, align 4
  br label %19

19:                                               ; preds = %30, %18
  %20 = load i32, i32* %2, align 4
  %21 = load i32, i32* %3, align 4
  %22 = icmp slt i32 %20, %21
  br i1 %22, label %23, label %33

23:                                               ; preds = %19
  %24 = load i32, i32* %2, align 4
  %25 = sext i32 %24 to i64
  %26 = getelementptr inbounds [30 x i32], [30 x i32]* %4, i64 0, i64 %25
  %27 = load i32, i32* %26, align 4
  %28 = call i32 @Fibonacci(i32 %27)
  %29 = call i32 (i8*, ...) @printf(i8* getelementptr inbounds ([4 x i8], [4 x i8]* @.str.1, i64 0, i64 0), i32 %28)
  br label %30

30:                                               ; preds = %23
  %31 = load i32, i32* %2, align 4
  %32 = add nsw i32 %31, 1
  store i32 %32, i32* %2, align 4
  br label %19

33:                                               ; preds = %19
  ret i32 0
}

declare dso_local i32 @__isoc99_scanf(i8*, ...) #1

declare dso_local i32 @printf(i8*, ...) #1

; Function Attrs: noinline nounwind uwtable
define dso_local i32 @Fibonacci(i32 %0) #0 {
  %2 = alloca i32, align 4
  %3 = alloca i32, align 4
  %4 = alloca i32, align 4
  %5 = alloca i32, align 4
  %6 = alloca i32, align 4
  %7 = alloca i32, align 4
  store i32 %0, i32* %2, align 4
  store i32 1, i32* %4, align 4
  store i32 1, i32* %5, align 4
  %8 = load i32, i32* %2, align 4
  %9 = icmp eq i32 %8, 1
  br i1 %9, label %10, label %12

10:                                               ; preds = %1
  %11 = load i32, i32* %4, align 4
  store i32 %11, i32* %7, align 4
  br label %38

12:                                               ; preds = %1
  %13 = load i32, i32* %2, align 4
  %14 = icmp eq i32 %13, 2
  br i1 %14, label %15, label %17

15:                                               ; preds = %12
  %16 = load i32, i32* %5, align 4
  store i32 %16, i32* %7, align 4
  br label %37

17:                                               ; preds = %12
  %18 = load i32, i32* %2, align 4
  %19 = icmp sgt i32 %18, 2
  br i1 %19, label %20, label %36

20:                                               ; preds = %17
  store i32 3, i32* %3, align 4
  br label %21

21:                                               ; preds = %31, %20
  %22 = load i32, i32* %3, align 4
  %23 = load i32, i32* %2, align 4
  %24 = icmp sle i32 %22, %23
  br i1 %24, label %25, label %34

25:                                               ; preds = %21
  %26 = load i32, i32* %4, align 4
  %27 = load i32, i32* %5, align 4
  %28 = add nsw i32 %26, %27
  store i32 %28, i32* %6, align 4
  %29 = load i32, i32* %5, align 4
  store i32 %29, i32* %4, align 4
  %30 = load i32, i32* %6, align 4
  store i32 %30, i32* %5, align 4
  br label %31

31:                                               ; preds = %25
  %32 = load i32, i32* %3, align 4
  %33 = add nsw i32 %32, 1
  store i32 %33, i32* %3, align 4
  br label %21

34:                                               ; preds = %21
  %35 = load i32, i32* %5, align 4
  store i32 %35, i32* %7, align 4
  br label %36

36:                                               ; preds = %34, %17
  br label %37

37:                                               ; preds = %36, %15
  br label %38

38:                                               ; preds = %37, %10
  %39 = load i32, i32* %7, align 4
  ret i32 %39
}


!llvm.module.flags = !{!0}
!llvm.ident = !{!1}

!0 = !{i32 1, !"wchar_size", i32 4}
!1 = !{!"clang version 10.0.0-4ubuntu1 "}
